target datalayout = "e-m:e-p270:32:32-p271:32:32-p272:64:64-i64:64-i128:128-f80:128-n8:16:32:64-S128"
target triple = "x86_64-pc-linux-gnu"

%struct.reftable_iterator_vtable = type { ptr, ptr, ptr }
%struct.reftable_merged_table = type { ptr, i64, i32, i32, i64, i64 }
%struct.merged_subiter = type { %struct.reftable_iterator, %struct.reftable_record }
%struct.reftable_iterator = type { ptr, ptr }
%struct.reftable_record = type { i8, %union.anon }
%union.anon = type { %struct.reftable_log_record }
%struct.reftable_log_record = type { ptr, i64, i64, i32, %union.anon.1 }
%union.anon.1 = type { %struct.anon.2 }
%struct.anon.2 = type { [32 x i8], [32 x i8], ptr, ptr, i64, i16, ptr, i64 }
%struct.merged_iter = type { ptr, %struct.merged_iter_pqueue, i64, i32, i64 }
%struct.merged_iter_pqueue = type { ptr, i64, i64 }

@merged_iter_vtable = internal global %struct.reftable_iterator_vtable { ptr @merged_iter_seek_void, ptr @merged_iter_next_void, ptr @merged_iter_close }, align 8

; Function Attrs: nounwind uwtable
define internal void @iterator_from_merged_iter(ptr noundef %0, ptr noundef %1) #0 {
  %3 = alloca ptr, align 8
  %4 = alloca ptr, align 8
  store ptr %0, ptr %3, align 8, !tbaa !27
  store ptr %1, ptr %4, align 8, !tbaa !32
  %5 = load ptr, ptr %4, align 8, !tbaa !32
  %6 = load ptr, ptr %3, align 8, !tbaa !27
  %7 = getelementptr inbounds nuw %struct.reftable_iterator, ptr %6, i32 0, i32 1
  store ptr %5, ptr %7, align 8, !tbaa !44
  %8 = load ptr, ptr %3, align 8, !tbaa !27
  %9 = getelementptr inbounds nuw %struct.reftable_iterator, ptr %8, i32 0, i32 0
  store ptr @merged_iter_vtable, ptr %9, align 8, !tbaa !47
  ret void
}

; Function Attrs: nounwind uwtable
define dso_local i32 @merged_table_init_iter(ptr noundef %0, ptr noundef %1, i8 noundef zeroext %2) #0 {
  %4 = alloca i32, align 4
  %5 = alloca ptr, align 8
  %6 = alloca ptr, align 8
  %7 = alloca i8, align 1
  %8 = alloca ptr, align 8
  %9 = alloca ptr, align 8
  %10 = alloca i32, align 4
  %11 = alloca i64, align 8
  %12 = alloca i32, align 4
  %13 = alloca i64, align 8
  store ptr %0, ptr %5, align 8, !tbaa !15
  store ptr %1, ptr %6, align 8, !tbaa !27
  store i8 %2, ptr %7, align 1, !tbaa !29
  call void @llvm.lifetime.start.p0(i64 8, ptr %8) #6
  store ptr null, ptr %8, align 8, !tbaa !30
  call void @llvm.lifetime.start.p0(i64 8, ptr %9) #6
  store ptr null, ptr %9, align 8, !tbaa !32
  call void @llvm.lifetime.start.p0(i64 4, ptr %10) #6
  %14 = load ptr, ptr %5, align 8, !tbaa !15
  %15 = getelementptr inbounds nuw %struct.reftable_merged_table, ptr %14, i32 0, i32 1
  %16 = load i64, ptr %15, align 8, !tbaa !23
  %17 = icmp ne i64 %16, 0
  br i1 %17, label %18, label %27

18:                                               ; preds = %3
  %19 = load ptr, ptr %5, align 8, !tbaa !15
  %20 = getelementptr inbounds nuw %struct.reftable_merged_table, ptr %19, i32 0, i32 1
  %21 = load i64, ptr %20, align 8, !tbaa !23
  %22 = call ptr @reftable_calloc(i64 noundef %21, i64 noundef 168)
  store ptr %22, ptr %8, align 8, !tbaa !30
  %23 = load ptr, ptr %8, align 8, !tbaa !30
  %24 = icmp ne ptr %23, null
  br i1 %24, label %26, label %25

25:                                               ; preds = %18
  store i32 -13, ptr %10, align 4, !tbaa !13
  br label %85

26:                                               ; preds = %18
  br label %27

27:                                               ; preds = %26, %3
  call void @llvm.lifetime.start.p0(i64 8, ptr %11) #6
  store i64 0, ptr %11, align 8, !tbaa !11
  br label %28

28:                                               ; preds = %57, %27
  %29 = load i64, ptr %11, align 8, !tbaa !11
  %30 = load ptr, ptr %5, align 8, !tbaa !15
  %31 = getelementptr inbounds nuw %struct.reftable_merged_table, ptr %30, i32 0, i32 1
  %32 = load i64, ptr %31, align 8, !tbaa !23
  %33 = icmp ult i64 %29, %32
  br i1 %33, label %35, label %34

34:                                               ; preds = %28
  store i32 3, ptr %12, align 4
  br label %60

35:                                               ; preds = %28
  %36 = load ptr, ptr %8, align 8, !tbaa !30
  %37 = load i64, ptr %11, align 8, !tbaa !11
  %38 = getelementptr inbounds nuw %struct.merged_subiter, ptr %36, i64 %37
  %39 = getelementptr inbounds nuw %struct.merged_subiter, ptr %38, i32 0, i32 1
  %40 = load i8, ptr %7, align 1, !tbaa !29
  call void @reftable_record_init(ptr noundef %39, i8 noundef zeroext %40)
  %41 = load ptr, ptr %5, align 8, !tbaa !15
  %42 = getelementptr inbounds nuw %struct.reftable_merged_table, ptr %41, i32 0, i32 0
  %43 = load ptr, ptr %42, align 8, !tbaa !21
  %44 = load i64, ptr %11, align 8, !tbaa !11
  %45 = getelementptr inbounds nuw ptr, ptr %43, i64 %44
  %46 = load ptr, ptr %45, align 8, !tbaa !17
  %47 = load ptr, ptr %8, align 8, !tbaa !30
  %48 = load i64, ptr %11, align 8, !tbaa !11
  %49 = getelementptr inbounds nuw %struct.merged_subiter, ptr %47, i64 %48
  %50 = getelementptr inbounds nuw %struct.merged_subiter, ptr %49, i32 0, i32 0
  %51 = load i8, ptr %7, align 1, !tbaa !29
  %52 = call i32 @reader_init_iter(ptr noundef %46, ptr noundef %50, i8 noundef zeroext %51)
  store i32 %52, ptr %10, align 4, !tbaa !13
  %53 = load i32, ptr %10, align 4, !tbaa !13
  %54 = icmp slt i32 %53, 0
  br i1 %54, label %55, label %56

55:                                               ; preds = %35
  store i32 2, ptr %12, align 4
  br label %60

56:                                               ; preds = %35
  br label %57

57:                                               ; preds = %56
  %58 = load i64, ptr %11, align 8, !tbaa !11
  %59 = add i64 %58, 1
  store i64 %59, ptr %11, align 8, !tbaa !11
  br label %28, !llvm.loop !34

60:                                               ; preds = %55, %34
  call void @llvm.lifetime.end.p0(i64 8, ptr %11) #6
  %61 = load i32, ptr %12, align 4
  switch i32 %61, label %118 [
    i32 3, label %62
    i32 2, label %85
  ]

62:                                               ; preds = %60
  %63 = call ptr @reftable_calloc(i64 noundef 1, i64 noundef 56)
  store ptr %63, ptr %9, align 8, !tbaa !32
  %64 = load ptr, ptr %9, align 8, !tbaa !32
  %65 = icmp ne ptr %64, null
  br i1 %65, label %67, label %66

66:                                               ; preds = %62
  store i32 -13, ptr %10, align 4, !tbaa !13
  br label %85

67:                                               ; preds = %62
  %68 = load ptr, ptr %9, align 8, !tbaa !32
  %69 = getelementptr inbounds nuw %struct.merged_iter, ptr %68, i32 0, i32 4
  store i64 -1, ptr %69, align 8, !tbaa !35
  %70 = load ptr, ptr %5, align 8, !tbaa !15
  %71 = getelementptr inbounds nuw %struct.reftable_merged_table, ptr %70, i32 0, i32 3
  %72 = load i32, ptr %71, align 4, !tbaa !39
  %73 = load ptr, ptr %9, align 8, !tbaa !32
  %74 = getelementptr inbounds nuw %struct.merged_iter, ptr %73, i32 0, i32 3
  store i32 %72, ptr %74, align 8, !tbaa !40
  %75 = load ptr, ptr %8, align 8, !tbaa !30
  %76 = load ptr, ptr %9, align 8, !tbaa !32
  %77 = getelementptr inbounds nuw %struct.merged_iter, ptr %76, i32 0, i32 0
  store ptr %75, ptr %77, align 8, !tbaa !41
  %78 = load ptr, ptr %5, align 8, !tbaa !15
  %79 = getelementptr inbounds nuw %struct.reftable_merged_table, ptr %78, i32 0, i32 1
  %80 = load i64, ptr %79, align 8, !tbaa !23
  %81 = load ptr, ptr %9, align 8, !tbaa !32
  %82 = getelementptr inbounds nuw %struct.merged_iter, ptr %81, i32 0, i32 2
  store i64 %80, ptr %82, align 8, !tbaa !42
  %83 = load ptr, ptr %6, align 8, !tbaa !27
  %84 = load ptr, ptr %9, align 8, !tbaa !32
  call void @iterator_from_merged_iter(ptr noundef %83, ptr noundef %84)
  store i32 0, ptr %10, align 4, !tbaa !13
  br label %85

85:                                               ; preds = %67, %60, %66, %25
  %86 = load i32, ptr %10, align 4, !tbaa !13
  %87 = icmp slt i32 %86, 0
  br i1 %87, label %88, label %116

88:                                               ; preds = %85
  call void @llvm.lifetime.start.p0(i64 8, ptr %13) #6
  store i64 0, ptr %13, align 8, !tbaa !11
  br label %89

89:                                               ; preds = %110, %88
  %90 = load ptr, ptr %8, align 8, !tbaa !30
  %91 = icmp ne ptr %90, null
  br i1 %91, label %92, label %98

92:                                               ; preds = %89
  %93 = load i64, ptr %13, align 8, !tbaa !11
  %94 = load ptr, ptr %5, align 8, !tbaa !15
  %95 = getelementptr inbounds nuw %struct.reftable_merged_table, ptr %94, i32 0, i32 1
  %96 = load i64, ptr %95, align 8, !tbaa !23
  %97 = icmp ult i64 %93, %96
  br label %98

98:                                               ; preds = %92, %89
  %99 = phi i1 [ false, %89 ], [ %97, %92 ]
  br i1 %99, label %101, label %100

100:                                              ; preds = %98
  store i32 6, ptr %12, align 4
  call void @llvm.lifetime.end.p0(i64 8, ptr %13) #6
  br label %113

101:                                              ; preds = %98
  %102 = load ptr, ptr %8, align 8, !tbaa !30
  %103 = load i64, ptr %13, align 8, !tbaa !11
  %104 = getelementptr inbounds nuw %struct.merged_subiter, ptr %102, i64 %103
  %105 = getelementptr inbounds nuw %struct.merged_subiter, ptr %104, i32 0, i32 0
  call void @reftable_iterator_destroy(ptr noundef %105)
  %106 = load ptr, ptr %8, align 8, !tbaa !30
  %107 = load i64, ptr %13, align 8, !tbaa !11
  %108 = getelementptr inbounds nuw %struct.merged_subiter, ptr %106, i64 %107
  %109 = getelementptr inbounds nuw %struct.merged_subiter, ptr %108, i32 0, i32 1
  call void @reftable_record_release(ptr noundef %109)
  br label %110

110:                                              ; preds = %101
  %111 = load i64, ptr %13, align 8, !tbaa !11
  %112 = add i64 %111, 1
  store i64 %112, ptr %13, align 8, !tbaa !11
  br label %89, !llvm.loop !43

113:                                              ; preds = %100
  %114 = load ptr, ptr %8, align 8, !tbaa !30
  call void @reftable_free(ptr noundef %114)
  %115 = load ptr, ptr %9, align 8, !tbaa !32
  call void @reftable_free(ptr noundef %115)
  br label %116

116:                                              ; preds = %113, %85
  %117 = load i32, ptr %10, align 4, !tbaa !13
  store i32 %117, ptr %4, align 4
  store i32 1, ptr %12, align 4
  br label %118

118:                                              ; preds = %116, %60
  call void @llvm.lifetime.end.p0(i64 4, ptr %10) #6
  call void @llvm.lifetime.end.p0(i64 8, ptr %9) #6
  call void @llvm.lifetime.end.p0(i64 8, ptr %8) #6
  %119 = load i32, ptr %4, align 4
  ret i32 %119
}