; Function Attrs: nounwind uwtable
define dso_local i32 @merged_table_init_iter(ptr noundef readonly captures(none) %0, ptr noundef writeonly captures(none) %1, i8 noundef zeroext %2) local_unnamed_addr #0 {
  %4 = getelementptr inbounds nuw i8, ptr %0, i64 8
  %5 = load i64, ptr %4, align 8, !tbaa !16
  %.not = icmp eq i64 %5, 0
  br i1 %.not, label %._crit_edge, label %6

6:                                                ; preds = %3
  %7 = tail call ptr @reftable_calloc(i64 noundef %5, i64 noundef 168) #6
  %.not52 = icmp eq ptr %7, null
  br i1 %.not52, label %.critedge, label %8

8:                                                ; preds = %6
  %.pre = load i64, ptr %4, align 8, !tbaa !16
  %9 = icmp eq i64 %.pre, 0
  br i1 %9, label %._crit_edge, label %.lr.ph

10:                                               ; preds = %.lr.ph
  %11 = add nuw i64 %.03964, 1
  %12 = load i64, ptr %4, align 8, !tbaa !16
  %13 = icmp ult i64 %11, %12
  br i1 %13, label %.lr.ph, label %._crit_edge, !llvm.loop !22

.lr.ph:                                           ; preds = %8, %10
  %.03964 = phi i64 [ %11, %10 ], [ 0, %8 ]
  %14 = getelementptr inbounds nuw %struct.merged_subiter, ptr %7, i64 %.03964
  %15 = getelementptr inbounds nuw i8, ptr %14, i64 16
  tail call void @reftable_record_init(ptr noundef nonnull %15, i8 noundef zeroext %2) #6
  %16 = load ptr, ptr %0, align 8, !tbaa !11
  %17 = getelementptr inbounds nuw ptr, ptr %16, i64 %.03964
  %18 = load ptr, ptr %17, align 8, !tbaa !4
  %19 = tail call i32 @reader_init_iter(ptr noundef %18, ptr noundef nonnull %14, i8 noundef zeroext %2) #6
  %20 = icmp slt i32 %19, 0
  br i1 %20, label %.lr.ph67.split, label %10

._crit_edge:                                      ; preds = %10, %3, %8
  %.04277 = phi ptr [ %7, %8 ], [ null, %3 ], [ %7, %10 ]
  %21 = tail call ptr @reftable_calloc(i64 noundef 1, i64 noundef 56) #6
  %.not53 = icmp eq ptr %21, null
  br i1 %.not53, label %.loopexit, label %.thread59

.thread59:                                        ; preds = %._crit_edge
  %22 = getelementptr inbounds nuw i8, ptr %21, i64 48
  store i64 -1, ptr %22, align 8, !tbaa !23
  %23 = getelementptr inbounds nuw i8, ptr %0, i64 20
  %24 = load i32, ptr %23, align 4, !tbaa !28
  %25 = getelementptr inbounds nuw i8, ptr %21, i64 40
  store i32 %24, ptr %25, align 8, !tbaa !29
  store ptr %.04277, ptr %21, align 8, !tbaa !30
  %26 = load i64, ptr %4, align 8, !tbaa !16
  %27 = getelementptr inbounds nuw i8, ptr %21, i64 32
  store i64 %26, ptr %27, align 8, !tbaa !31
  %28 = getelementptr inbounds nuw i8, ptr %1, i64 8
  store ptr %21, ptr %28, align 8, !tbaa !32
  store ptr @merged_iter_vtable, ptr %1, align 8, !tbaa !35
  br label %35

.loopexit:                                        ; preds = %._crit_edge
  %.not54 = icmp eq ptr %.04277, null
  br i1 %.not54, label %.critedge, label %.lr.ph67.split

.lr.ph67.split:                                   ; preds = %.lr.ph, %.loopexit
  %.04088 = phi i32 [ -13, %.loopexit ], [ %19, %.lr.ph ]
  %.14387 = phi ptr [ %.04277, %.loopexit ], [ %7, %.lr.ph ]
  %29 = load i64, ptr %4, align 8, !tbaa !16
  %.not72 = icmp eq i64 %29, 0
  br i1 %.not72, label %.critedge, label %.lr.ph70

.critedge:                                        ; preds = %.lr.ph70, %6, %.lr.ph67.split, %.loopexit
  %.04082 = phi i32 [ %.04088, %.lr.ph67.split ], [ -13, %.loopexit ], [ -13, %6 ], [ %.04088, %.lr.ph70 ]
  %.14381 = phi ptr [ %.14387, %.lr.ph67.split ], [ null, %.loopexit ], [ null, %6 ], [ %.14387, %.lr.ph70 ]
  tail call void @reftable_free(ptr noundef %.14381) #6
  tail call void @reftable_free(ptr noundef null) #6
  br label %35

.lr.ph70:                                         ; preds = %.lr.ph67.split, %.lr.ph70
  %.06569 = phi i64 [ %32, %.lr.ph70 ], [ 0, %.lr.ph67.split ]
  %30 = getelementptr inbounds nuw %struct.merged_subiter, ptr %.14387, i64 %.06569
  tail call void @reftable_iterator_destroy(ptr noundef nonnull %30) #6
  %31 = getelementptr inbounds nuw i8, ptr %30, i64 16
  tail call void @reftable_record_release(ptr noundef nonnull %31) #6
  %32 = add nuw i64 %.06569, 1
  %33 = load i64, ptr %4, align 8, !tbaa !16
  %34 = icmp ult i64 %32, %33
  br i1 %34, label %.lr.ph70, label %.critedge

35:                                               ; preds = %.thread59, %.critedge
  %.04063 = phi i32 [ 0, %.thread59 ], [ %.04082, %.critedge ]
  ret i32 %.04063
}